; ModuleID = '25/124.cpp'
source_filename = "25/124.cpp"
target datalayout = "e-m:e-p270:32:32-p271:32:32-p272:64:64-i64:64-f80:128-n8:16:32:64-S128"
target triple = "x86_64-pc-linux-gnu"

%"class.std::ios_base::Init" = type { i8 }
%"class.std::basic_istream" = type { i32 (...)**, i64, %"class.std::basic_ios" }
%"class.std::basic_ios" = type { %"class.std::ios_base", %"class.std::basic_ostream"*, i8, i8, %"class.std::basic_streambuf"*, %"class.std::ctype"*, %"class.std::num_put"*, %"class.std::num_get"* }
%"class.std::ios_base" = type { i32 (...)**, i64, i64, i32, i32, i32, %"struct.std::ios_base::_Callback_list"*, %"struct.std::ios_base::_Words", [8 x %"struct.std::ios_base::_Words"], i32, %"struct.std::ios_base::_Words"*, %"class.std::locale" }
%"struct.std::ios_base::_Callback_list" = type { %"struct.std::ios_base::_Callback_list"*, void (i32, %"class.std::ios_base"*, i32)*, i32, i32 }
%"struct.std::ios_base::_Words" = type { i8*, i64 }
%"class.std::locale" = type { %"class.std::locale::_Impl"* }
%"class.std::locale::_Impl" = type { i32, %"class.std::locale::facet"**, i64, %"class.std::locale::facet"**, i8** }
%"class.std::locale::facet" = type <{ i32 (...)**, i32, [4 x i8] }>
%"class.std::basic_ostream" = type { i32 (...)**, %"class.std::basic_ios" }
%"class.std::basic_streambuf" = type { i32 (...)**, i8*, i8*, i8*, i8*, i8*, i8*, %"class.std::locale" }
%"class.std::ctype" = type <{ %"class.std::locale::facet.base", [4 x i8], %struct.__locale_struct*, i8, [7 x i8], i32*, i32*, i16*, i8, [256 x i8], [256 x i8], i8, [6 x i8] }>
%"class.std::locale::facet.base" = type <{ i32 (...)**, i32 }>
%struct.__locale_struct = type { [13 x %struct.__locale_data*], i16*, i32*, i32*, [13 x i8*] }
%struct.__locale_data = type opaque
%"class.std::num_put" = type { %"class.std::locale::facet.base", [4 x i8] }
%"class.std::num_get" = type { %"class.std::locale::facet.base", [4 x i8] }

@_ZStL8__ioinit = internal global %"class.std::ios_base::Init" zeroinitializer, align 1
@__dso_handle = external hidden global i8
@_ZSt3cin = external dso_local global %"class.std::basic_istream", align 8
@_ZSt4cout = external dso_local global %"class.std::basic_ostream", align 8
@llvm.global_ctors = appending global [1 x { i32, void ()*, i8* }] [{ i32, void ()*, i8* } { i32 65535, void ()* @_GLOBAL__sub_I_124.cpp, i8* null }]

; Function Attrs: noinline uwtable
define internal void @__cxx_global_var_init() #0 section ".text.startup" {
  call void @_ZNSt8ios_base4InitC1Ev(%"class.std::ios_base::Init"* @_ZStL8__ioinit)
  %1 = call i32 @__cxa_atexit(void (i8*)* bitcast (void (%"class.std::ios_base::Init"*)* @_ZNSt8ios_base4InitD1Ev to void (i8*)*), i8* getelementptr inbounds (%"class.std::ios_base::Init", %"class.std::ios_base::Init"* @_ZStL8__ioinit, i32 0, i32 0), i8* @__dso_handle) #3
  ret void
}

declare dso_local void @_ZNSt8ios_base4InitC1Ev(%"class.std::ios_base::Init"*) unnamed_addr #1

; Function Attrs: nounwind
declare dso_local void @_ZNSt8ios_base4InitD1Ev(%"class.std::ios_base::Init"*) unnamed_addr #2

; Function Attrs: nounwind
declare dso_local i32 @__cxa_atexit(void (i8*)*, i8*, i8*) #3

; Function Attrs: noinline uwtable
define dso_local void @_Z9chengfangPii(i32* %0, i32 %1) #0 {
  %3 = alloca i32*, align 8
  %4 = alloca i32, align 4
  %5 = alloca i32, align 4
  store i32* %0, i32** %3, align 8
  store i32 %1, i32* %4, align 4
  %6 = load i32, i32* %4, align 4
  %7 = icmp eq i32 %6, 0
  br i1 %7, label %8, label %9

8:                                                ; preds = %2
  br label %66

9:                                                ; preds = %2
  store i32 32, i32* %5, align 4
  br label %10

10:                                               ; preds = %24, %9
  %11 = load i32, i32* %5, align 4
  %12 = icmp sge i32 %11, 0
  br i1 %12, label %13, label %27

13:                                               ; preds = %10
  %14 = load i32*, i32** %3, align 8
  %15 = load i32, i32* %5, align 4
  %16 = sext i32 %15 to i64
  %17 = getelementptr inbounds i32, i32* %14, i64 %16
  %18 = load i32, i32* %17, align 4
  %19 = mul nsw i32 %18, 2
  %20 = load i32*, i32** %3, align 8
  %21 = load i32, i32* %5, align 4
  %22 = sext i32 %21 to i64
  %23 = getelementptr inbounds i32, i32* %20, i64 %22
  store i32 %19, i32* %23, align 4
  br label %24

24:                                               ; preds = %13
  %25 = load i32, i32* %5, align 4
  %26 = add nsw i32 %25, -1
  store i32 %26, i32* %5, align 4
  br label %10

27:                                               ; preds = %10
  store i32 32, i32* %5, align 4
  br label %28

28:                                               ; preds = %59, %27
  %29 = load i32, i32* %5, align 4
  %30 = icmp sgt i32 %29, 0
  br i1 %30, label %31, label %62

31:                                               ; preds = %28
  %32 = load i32*, i32** %3, align 8
  %33 = load i32, i32* %5, align 4
  %34 = sext i32 %33 to i64
  %35 = getelementptr inbounds i32, i32* %32, i64 %34
  %36 = load i32, i32* %35, align 4
  %37 = icmp sge i32 %36, 10
  br i1 %37, label %38, label %58

38:                                               ; preds = %31
  %39 = load i32*, i32** %3, align 8
  %40 = load i32, i32* %5, align 4
  %41 = sext i32 %40 to i64
  %42 = getelementptr inbounds i32, i32* %39, i64 %41
  %43 = load i32, i32* %42, align 4
  %44 = sdiv i32 %43, 10
  %45 = load i32*, i32** %3, align 8
  %46 = load i32, i32* %5, align 4
  %47 = sub nsw i32 %46, 1
  %48 = sext i32 %47 to i64
  %49 = getelementptr inbounds i32, i32* %45, i64 %48
  %50 = load i32, i32* %49, align 4
  %51 = add nsw i32 %50, %44
  store i32 %51, i32* %49, align 4
  %52 = load i32*, i32** %3, align 8
  %53 = load i32, i32* %5, align 4
  %54 = sext i32 %53 to i64
  %55 = getelementptr inbounds i32, i32* %52, i64 %54
  %56 = load i32, i32* %55, align 4
  %57 = srem i32 %56, 10
  store i32 %57, i32* %55, align 4
  br label %58

58:                                               ; preds = %38, %31
  br label %59

59:                                               ; preds = %58
  %60 = load i32, i32* %5, align 4
  %61 = add nsw i32 %60, -1
  store i32 %61, i32* %5, align 4
  br label %28

62:                                               ; preds = %28
  %63 = load i32*, i32** %3, align 8
  %64 = load i32, i32* %4, align 4
  %65 = sub nsw i32 %64, 1
  call void @_Z9chengfangPii(i32* %63, i32 %65)
  br label %66

66:                                               ; preds = %8, %62
  ret void
}

; Function Attrs: noinline norecurse uwtable
define dso_local i32 @main() #4 {
  %1 = alloca i32, align 4
  %2 = alloca [33 x i32], align 16
  %3 = alloca i32*, align 8
  %4 = alloca i32, align 4
  store i32 0, i32* %1, align 4
  %5 = call dereferenceable(280) %"class.std::basic_istream"* @_ZNSirsERi(%"class.std::basic_istream"* @_ZSt3cin, i32* dereferenceable(4) %4)
  %6 = getelementptr inbounds [33 x i32], [33 x i32]* %2, i64 0, i64 0
  %7 = bitcast i32* %6 to i8*
  call void @llvm.memset.p0i8.i64(i8* align 16 %7, i8 0, i64 132, i1 false)
  %8 = getelementptr inbounds [33 x i32], [33 x i32]* %2, i64 0, i64 32
  store i32 1, i32* %8, align 16
  %9 = getelementptr inbounds [33 x i32], [33 x i32]* %2, i64 0, i64 0
  %10 = load i32, i32* %4, align 4
  call void @_Z9chengfangPii(i32* %9, i32 %10)
  %11 = getelementptr inbounds [33 x i32], [33 x i32]* %2, i64 0, i64 0
  store i32* %11, i32** %3, align 8
  br label %12

12:                                               ; preds = %16, %0
  %13 = load i32*, i32** %3, align 8
  %14 = load i32, i32* %13, align 4
  %15 = icmp eq i32 %14, 0
  br i1 %15, label %16, label %19

16:                                               ; preds = %12
  %17 = load i32*, i32** %3, align 8
  %18 = getelementptr inbounds i32, i32* %17, i32 1
  store i32* %18, i32** %3, align 8
  br label %12

19:                                               ; preds = %12
  br label %20

20:                                               ; preds = %29, %19
  %21 = load i32*, i32** %3, align 8
  %22 = getelementptr inbounds [33 x i32], [33 x i32]* %2, i64 0, i64 0
  %23 = getelementptr inbounds i32, i32* %22, i64 32
  %24 = icmp ule i32* %21, %23
  br i1 %24, label %25, label %32

25:                                               ; preds = %20
  %26 = load i32*, i32** %3, align 8
  %27 = load i32, i32* %26, align 4
  %28 = call dereferenceable(272) %"class.std::basic_ostream"* @_ZNSolsEi(%"class.std::basic_ostream"* @_ZSt4cout, i32 %27)
  br label %29

29:                                               ; preds = %25
  %30 = load i32*, i32** %3, align 8
  %31 = getelementptr inbounds i32, i32* %30, i32 1
  store i32* %31, i32** %3, align 8
  br label %20

32:                                               ; preds = %20
  ret i32 0
}

declare dso_local dereferenceable(280) %"class.std::basic_istream"* @_ZNSirsERi(%"class.std::basic_istream"*, i32* dereferenceable(4)) #1

; Function Attrs: argmemonly nounwind willreturn
declare void @llvm.memset.p0i8.i64(i8* nocapture writeonly, i8, i64, i1 immarg) #5

declare dso_local dereferenceable(272) %"class.std::basic_ostream"* @_ZNSolsEi(%"class.std::basic_ostream"*, i32) #1

; Function Attrs: noinline uwtable
define internal void @_GLOBAL__sub_I_124.cpp() #0 section ".text.startup" {
  call void @__cxx_global_var_init()
  ret void
}


!llvm.module.flags = !{!0}
!llvm.ident = !{!1}

!0 = !{i32 1, !"wchar_size", i32 4}
!1 = !{!"clang version 10.0.0-4ubuntu1 "}
